(dp1
S'files'
p2
(dp3
S'rental_availableCar_migrations___init__'
p4
(dp5
S'index'
p6
(dp7
S'html_filename'
p8
S'rental_availableCar_migrations___init__.html'
p9
sS'name'
p10
S'rental/availableCar/migrations/__init__'
p11
sS'nums'
p12
ccopy_reg
_reconstructor
p13
(ccoverage.results
Numbers
p14
c__builtin__
object
p15
NtRp16
(dp17
S'n_files'
p18
I1
sS'n_branches'
p19
I0
sS'n_statements'
p20
I0
sS'n_excluded'
p21
I0
sS'n_partial_branches'
p22
I0
sS'n_missing'
p23
I0
sS'n_missing_branches'
p24
I0
sbssS'hash'
p25
S'\xb0\xc8pN\xaf>\xa0\xbaz\x144\xe0A9\xb8?'
p26
ssS'rental_availableCar_tests'
p27
(dp28
g6
(dp29
g8
S'rental_availableCar_tests.html'
p30
sg10
S'rental/availableCar/tests'
p31
sg12
g13
(g14
g15
NtRp32
(dp33
g18
I1
sg19
I0
sg20
I2
sg21
I0
sg22
I0
sg23
I0
sg24
I0
sbssg25
S'LBC/\x18\x9ckT\xbb\xb5\xb67\x9c\xad\x91D'
p34
ssS'manage'
p35
(dp36
g6
(dp37
g8
S'manage.html'
p38
sg10
g35
sg12
g13
(g14
g15
NtRp39
(dp40
g18
I1
sg19
I0
sg20
I13
sg21
I0
sg22
I0
sg23
I6
sg24
I0
sbssg25
S'\xe0\xd9g4\xbemj\x18p<#~\xf9\x1c\xa8\x1a'
p41
ssS'rental_signup_views'
p42
(dp43
g6
(dp44
g8
S'rental_signup_views.html'
p45
sg10
S'rental/signup/views'
p46
sg12
g13
(g14
g15
NtRp47
(dp48
g18
I1
sg19
I0
sg20
I37
sg21
I0
sg22
I0
sg23
I24
sg24
I0
sbssg25
S'v\xa2E\xfbu\xd9\x13\x87(\x9a\x8e\xf5\x82&\r\xda'
p49
ssS'rental_homepage_views'
p50
(dp51
g6
(dp52
g8
S'rental_homepage_views.html'
p53
sg10
S'rental/homepage/views'
p54
sg12
g13
(g14
g15
NtRp55
(dp56
g18
I1
sg19
I0
sg20
I7
sg21
I0
sg22
I0
sg23
I3
sg24
I0
sbssg25
S'\xe0C\xf4%F\xb0\xca\x93A\x96\x0c\xcdmI{q'
p57
ssS'rental_signup_migrations___init__'
p58
(dp59
g6
(dp60
g8
S'rental_signup_migrations___init__.html'
p61
sg10
S'rental/signup/migrations/__init__'
p62
sg12
g13
(g14
g15
NtRp63
(dp64
g18
I1
sg19
I0
sg20
I0
sg21
I0
sg22
I0
sg23
I0
sg24
I0
sbssg25
S'\xb0\xc8pN\xaf>\xa0\xbaz\x144\xe0A9\xb8?'
p65
ssS'rental___init__'
p66
(dp67
g6
(dp68
g8
S'rental___init__.html'
p69
sg10
S'rental/__init__'
p70
sg12
g13
(g14
g15
NtRp71
(dp72
g18
I1
sg19
I0
sg20
I0
sg21
I0
sg22
I0
sg23
I0
sg24
I0
sbssg25
S'\xb0\xc8pN\xaf>\xa0\xbaz\x144\xe0A9\xb8?'
p73
ssS'rental_homepage___init__'
p74
(dp75
g6
(dp76
g8
S'rental_homepage___init__.html'
p77
sg10
S'rental/homepage/__init__'
p78
sg12
g13
(g14
g15
NtRp79
(dp80
g18
I1
sg19
I0
sg20
I0
sg21
I0
sg22
I0
sg23
I0
sg24
I0
sbssg25
S'\xb0\xc8pN\xaf>\xa0\xbaz\x144\xe0A9\xb8?'
p81
ssS'rental_homepage_admin'
p82
(dp83
g6
(dp84
g8
S'rental_homepage_admin.html'
p85
sg10
S'rental/homepage/admin'
p86
sg12
g13
(g14
g15
NtRp87
(dp88
g18
I1
sg19
I0
sg20
I2
sg21
I0
sg22
I0
sg23
I0
sg24
I0
sbssg25
S'\xc4\xfc\xaa\xa0\xbfr\x88\xcf\xec\xbe\x82\x7fT\x18\xa8\xc2'
p89
ssS'rental_availableCar_admin'
p90
(dp91
g6
(dp92
g8
S'rental_availableCar_admin.html'
p93
sg10
S'rental/availableCar/admin'
p94
sg12
g13
(g14
g15
NtRp95
(dp96
g18
I1
sg19
I0
sg20
I2
sg21
I0
sg22
I0
sg23
I0
sg24
I0
sbssg25
S'\xc4\xfc\xaa\xa0\xbfr\x88\xcf\xec\xbe\x82\x7fT\x18\xa8\xc2'
p97
ssS'rental_signup_admin'
p98
(dp99
g6
(dp100
g8
S'rental_signup_admin.html'
p101
sg10
S'rental/signup/admin'
p102
sg12
g13
(g14
g15
NtRp103
(dp104
g18
I1
sg19
I0
sg20
I2
sg21
I0
sg22
I0
sg23
I0
sg24
I0
sbssg25
S'\xc4\xfc\xaa\xa0\xbfr\x88\xcf\xec\xbe\x82\x7fT\x18\xa8\xc2'
p105
ssS'rental_staffpage_migrations___init__'
p106
(dp107
g6
(dp108
g8
S'rental_staffpage_migrations___init__.html'
p109
sg10
S'rental/staffpage/migrations/__init__'
p110
sg12
g13
(g14
g15
NtRp111
(dp112
g18
I1
sg19
I0
sg20
I0
sg21
I0
sg22
I0
sg23
I0
sg24
I0
sbssg25
S'\xb0\xc8pN\xaf>\xa0\xbaz\x144\xe0A9\xb8?'
p113
ssS'rental_signup_forms'
p114
(dp115
g6
(dp116
g8
S'rental_signup_forms.html'
p117
sg10
S'rental/signup/forms'
p118
sg12
g13
(g14
g15
NtRp119
(dp120
g18
I1
sg19
I0
sg20
I10
sg21
I0
sg22
I0
sg23
I0
sg24
I0
sbssg25
S'\xe1\xe6:\xd8n\xa8\xd4f6\xb4\xa5\xeaE\xb9G?'
p121
ssS'rental_signup_models'
p122
(dp123
g6
(dp124
g8
S'rental_signup_models.html'
p125
sg10
S'rental/signup/models'
p126
sg12
g13
(g14
g15
NtRp127
(dp128
g18
I1
sg19
I0
sg20
I2
sg21
I0
sg22
I0
sg23
I0
sg24
I0
sbssg25
S'\xba\xb3\xb8\x82\xc9u\xb6Z\xf6D\x8b\tN\x1c\xa9k'
p129
ssS'rental_staffpage_migrations_0001_initial'
p130
(dp131
g6
(dp132
g8
S'rental_staffpage_migrations_0001_initial.html'
p133
sg10
S'rental/staffpage/migrations/0001_initial'
p134
sg12
g13
(g14
g15
NtRp135
(dp136
g18
I1
sg19
I0
sg20
I6
sg21
I0
sg22
I0
sg23
I0
sg24
I0
sbssg25
S'\xa4[\xc5I\x9c\x19\x86rG\x9cp\xe4\xcb8&\x8d'
p137
ssS'rental_staffpage_tests'
p138
(dp139
g6
(dp140
g8
S'rental_staffpage_tests.html'
p141
sg10
S'rental/staffpage/tests'
p142
sg12
g13
(g14
g15
NtRp143
(dp144
g18
I1
sg19
I0
sg20
I2
sg21
I0
sg22
I0
sg23
I0
sg24
I0
sbssg25
S'LBC/\x18\x9ckT\xbb\xb5\xb67\x9c\xad\x91D'
p145
ssS'rental_signup_tests'
p146
(dp147
g6
(dp148
g8
S'rental_signup_tests.html'
p149
sg10
S'rental/signup/tests'
p150
sg12
g13
(g14
g15
NtRp151
(dp152
g18
I1
sg19
I0
sg20
I2
sg21
I0
sg22
I0
sg23
I0
sg24
I0
sbssg25
S'LBC/\x18\x9ckT\xbb\xb5\xb67\x9c\xad\x91D'
p153
ssS'rental_availableCar___init__'
p154
(dp155
g6
(dp156
g8
S'rental_availableCar___init__.html'
p157
sg10
S'rental/availableCar/__init__'
p158
sg12
g13
(g14
g15
NtRp159
(dp160
g18
I1
sg19
I0
sg20
I0
sg21
I0
sg22
I0
sg23
I0
sg24
I0
sbssg25
S'\xb0\xc8pN\xaf>\xa0\xbaz\x144\xe0A9\xb8?'
p161
ssS'rental_signup___init__'
p162
(dp163
g6
(dp164
g8
S'rental_signup___init__.html'
p165
sg10
S'rental/signup/__init__'
p166
sg12
g13
(g14
g15
NtRp167
(dp168
g18
I1
sg19
I0
sg20
I0
sg21
I0
sg22
I0
sg23
I0
sg24
I0
sbssg25
S'\xb0\xc8pN\xaf>\xa0\xbaz\x144\xe0A9\xb8?'
p169
ssS'rental_settings'
p170
(dp171
g6
(dp172
g8
S'rental_settings.html'
p173
sg10
S'rental/settings'
p174
sg12
g13
(g14
g15
NtRp175
(dp176
g18
I1
sg19
I0
sg20
I25
sg21
I0
sg22
I0
sg23
I0
sg24
I0
sbssg25
S'\xce\xbb\t#\xec\x0e\xcdz\x13\xb7\x1eQ\xaa;\xb2\xf2'
p177
ssS'rental_staffpage_views'
p178
(dp179
g6
(dp180
g8
S'rental_staffpage_views.html'
p181
sg10
S'rental/staffpage/views'
p182
sg12
g13
(g14
g15
NtRp183
(dp184
g18
I1
sg19
I0
sg20
I7
sg21
I0
sg22
I0
sg23
I3
sg24
I0
sbssg25
S'\xee(\x0bg33?\xa7F\x1c\xda\xbevI\xd3\x90'
p185
ssS'rental_staffpage_models'
p186
(dp187
g6
(dp188
g8
S'rental_staffpage_models.html'
p189
sg10
S'rental/staffpage/models'
p190
sg12
g13
(g14
g15
NtRp191
(dp192
g18
I1
sg19
I0
sg20
I152
sg21
I0
sg22
I0
sg23
I0
sg24
I0
sbssg25
S'\r\xba\xc3\xda\xc5"\xe2\xdbe\xc5g\x83\x9aIqf'
p193
ssS'rental_homepage_tests'
p194
(dp195
g6
(dp196
g8
S'rental_homepage_tests.html'
p197
sg10
S'rental/homepage/tests'
p198
sg12
g13
(g14
g15
NtRp199
(dp200
g18
I1
sg19
I0
sg20
I2
sg21
I0
sg22
I0
sg23
I0
sg24
I0
sbssg25
S'LBC/\x18\x9ckT\xbb\xb5\xb67\x9c\xad\x91D'
p201
ssS'rental_staffpage_admin'
p202
(dp203
g6
(dp204
g8
S'rental_staffpage_admin.html'
p205
sg10
S'rental/staffpage/admin'
p206
sg12
g13
(g14
g15
NtRp207
(dp208
g18
I1
sg19
I0
sg20
I2
sg21
I0
sg22
I0
sg23
I0
sg24
I0
sbssg25
S'\xc4\xfc\xaa\xa0\xbfr\x88\xcf\xec\xbe\x82\x7fT\x18\xa8\xc2'
p209
ssS'rental_urls'
p210
(dp211
g6
(dp212
g8
S'rental_urls.html'
p213
sg10
S'rental/urls'
p214
sg12
g13
(g14
g15
NtRp215
(dp216
g18
I1
sg19
I0
sg20
I9
sg21
I0
sg22
I0
sg23
I0
sg24
I0
sbssg25
S'\xf2\xbc\xb06\x16\xbe,\x08=7\xba\xc7\x08x\x8c\x15'
p217
ssS'rental_availableCar_migrations_0001_initial'
p218
(dp219
g6
(dp220
g8
S'rental_availableCar_migrations_0001_initial.html'
p221
sg10
S'rental/availableCar/migrations/0001_initial'
p222
sg12
g13
(g14
g15
NtRp223
(dp224
g18
I1
sg19
I0
sg20
I6
sg21
I0
sg22
I0
sg23
I0
sg24
I0
sbssg25
S'\x15fR\xcf\xdf\xf2Wx\xe3\xed\x95\xec\xc6\x91uV'
p225
ssS'rental_homepage_migrations___init__'
p226
(dp227
g6
(dp228
g8
S'rental_homepage_migrations___init__.html'
p229
sg10
S'rental/homepage/migrations/__init__'
p230
sg12
g13
(g14
g15
NtRp231
(dp232
g18
I1
sg19
I0
sg20
I0
sg21
I0
sg22
I0
sg23
I0
sg24
I0
sbssg25
S'\xb0\xc8pN\xaf>\xa0\xbaz\x144\xe0A9\xb8?'
p233
ssS'rental_staffpage___init__'
p234
(dp235
g6
(dp236
g8
S'rental_staffpage___init__.html'
p237
sg10
S'rental/staffpage/__init__'
p238
sg12
g13
(g14
g15
NtRp239
(dp240
g18
I1
sg19
I0
sg20
I0
sg21
I0
sg22
I0
sg23
I0
sg24
I0
sbssg25
S'\xb0\xc8pN\xaf>\xa0\xbaz\x144\xe0A9\xb8?'
p241
ssS'rental_availableCar_views'
p242
(dp243
g6
(dp244
g8
S'rental_availableCar_views.html'
p245
sg10
S'rental/availableCar/views'
p246
sg12
g13
(g14
g15
NtRp247
(dp248
g18
I1
sg19
I0
sg20
I7
sg21
I0
sg22
I0
sg23
I3
sg24
I0
sbssg25
S'#\x8b\xb9td\x03L+\xc2\x8e\xd2#a\x8e\xd1\xd7'
p249
ssS'rental_homepage_migrations_0001_initial'
p250
(dp251
g6
(dp252
g8
S'rental_homepage_migrations_0001_initial.html'
p253
sg10
S'rental/homepage/migrations/0001_initial'
p254
sg12
g13
(g14
g15
NtRp255
(dp256
g18
I1
sg19
I0
sg20
I6
sg21
I0
sg22
I0
sg23
I0
sg24
I0
sbssg25
S'N\xfc\x1b8*\xf6\x82vQ\x96\xbeD\xc5[!C'
p257
ssS'rental_homepage_models'
p258
(dp259
g6
(dp260
g8
S'rental_homepage_models.html'
p261
sg10
S'rental/homepage/models'
p262
sg12
g13
(g14
g15
NtRp263
(dp264
g18
I1
sg19
I0
sg20
I70
sg21
I0
sg22
I0
sg23
I0
sg24
I0
sbssg25
S'\xe3\xf4\xc0\xb7S\x80\x08wfMX\xfep\x17\xe4V'
p265
ssS'rental_availableCar_models'
p266
(dp267
g6
(dp268
g8
S'rental_availableCar_models.html'
p269
sg10
S'rental/availableCar/models'
p270
sg12
g13
(g14
g15
NtRp271
(dp272
g18
I1
sg19
I0
sg20
I152
sg21
I0
sg22
I0
sg23
I0
sg24
I0
sbssg25
S'\r\xba\xc3\xda\xc5"\xe2\xdbe\xc5g\x83\x9aIqf'
p273
sssS'version'
p274
S'3.6'
p275
sS'settings'
p276
S'3\xcf\xa1\x19.\x88o$\x8cA\xde\xbd\xcd\x06\xa1\x0f'
p277
sS'format'
p278
I1
s.